(dp1
S'OriginalConfig'
p2
ccopy_reg
_reconstructor
p3
(cWMCore.Configuration
Configuration
p4
c__builtin__
object
p5
NtRp6
(dp7
S'Site'
p8
g3
(cWMCore.Configuration
ConfigSection
p9
g5
NtRp10
(dp11
S'_internal_documentation'
p12
S''
sS'_internal_settings'
p13
c__builtin__
set
p14
((lp15
S'storageSite'
p16
atRp17
sS'_internal_name'
p18
g8
sS'_internal_docstrings'
p19
(dp20
sS'_internal_children'
p21
g14
((ltRp22
sg16
S'T2_IT_Pisa'
p23
sS'_internal_parent_ref'
p24
NsbsS'_internal_sections'
p25
(lp26
S'General'
p27
aS'JobType'
p28
aS'Data'
p29
ag8
asg27
g3
(g9
g5
NtRp30
(dp31
g12
S''
sg13
g14
((lp32
S'workArea'
p33
aS'requestName'
p34
aS'serverUrl'
p35
atRp36
sg18
g27
sg35
S'cmsweb.cern.ch'
p37
sg19
(dp38
sg21
g14
((ltRp39
sg34
S'NeutrinoL1FlatPUFromAODSIM_CRAB3'
p40
sg24
Nsg33
S'crab_projects'
p41
sbsS'_internal_webapps'
p42
(lp43
sS'_internal_components'
p44
(lp45
sg29
g3
(g9
g5
NtRp46
(dp47
S'inputDataset'
p48
S'/Neutrino_Pt-2to20_gun/Spring14dr-Flat20to50_POSTLS170_V5-v1/AODSIM'
p49
sS'publication'
p50
I01
sS'unitsPerJob'
p51
I30
sg12
S''
sg13
g14
((lp52
g48
aS'totalUnits'
p53
ag51
aS'splitting'
p54
aS'dbsUrl'
p55
aS'publishDataName'
p56
ag50
atRp57
sg18
g29
sg54
S'FileBased'
p58
sg19
(dp59
sg55
S'global'
p60
sg21
g14
((ltRp61
sg56
g40
sg24
Nsg53
I-1
sbsg28
g3
(g9
g5
NtRp62
(dp63
S'filecacheurl'
p64
S'https://cmsweb.cern.ch/crabcache'
p65
sg12
S''
sg13
g14
((lp66
S'psetName'
p67
aS'pluginName'
p68
aS'capath'
p69
aS'proxyfilename'
p70
ag64
atRp71
sg18
g28
sg19
(dp72
sg68
S'Analysis'
p73
sg69
S'/etc/grid-security/certificates/'
p74
sg21
g14
((ltRp75
sg67
S'ntuplerL1MinBiasAODSIM.py'
p76
sg24
Nsg70
S'/tmp/x509up_u33244'
p77
sbsbsS'voGroup'
p78
S''
sS'Server'
p79
g37
sS'instance'
p80
S'prod'
p81
sS'RequestName'
p82
S'140805_153332_crab3test-3:sdonato_crab_NeutrinoL1FlatPUFromAODSIM_CRAB3'
p83
sS'voRole'
p84
S''
sS'Port'
p85
S''
s.